; Function Attrs: mustprogress nounwind uwtable
define void @_ZN12FilterScriptD2Ev(ptr noundef nonnull align 8 dereferenceable(24) %0) unnamed_addr #4 align 2 personality ptr @__gxx_personality_v0 {
  %2 = getelementptr inbounds i8, ptr %0, i64 16
  %3 = load ptr, ptr %2, align 8
  %4 = load atomic i32, ptr %3 monotonic, align 4
  switch i32 %4, label %_ZN9QtPrivate8RefCount5derefEv.exit.i [
    i32 0, label %_ZN9QtPrivate8RefCount5derefEv.exit.thread2.i
    i32 -1, label %_ZN5QListI29FilterNameParameterValuesPairED2Ev.exit
  ]

_ZN9QtPrivate8RefCount5derefEv.exit.i:            ; preds = %1
  %5 = atomicrmw sub ptr %3, i32 1 seq_cst, align 4
  %.not.i = icmp eq i32 %5, 1
  br i1 %.not.i, label %_ZN9QtPrivate8RefCount5derefEv.exit._ZN9QtPrivate8RefCount5derefEv.exit.thread2_crit_edge.i, label %_ZN5QListI29FilterNameParameterValuesPairED2Ev.exit

_ZN9QtPrivate8RefCount5derefEv.exit._ZN9QtPrivate8RefCount5derefEv.exit.thread2_crit_edge.i: ; preds = %_ZN9QtPrivate8RefCount5derefEv.exit.i
  %.pre.i = load ptr, ptr %2, align 8
  br label %_ZN9QtPrivate8RefCount5derefEv.exit.thread2.i

_ZN9QtPrivate8RefCount5derefEv.exit.thread2.i:    ; preds = %_ZN9QtPrivate8RefCount5derefEv.exit._ZN9QtPrivate8RefCount5derefEv.exit.thread2_crit_edge.i, %1
  %6 = phi ptr [ %.pre.i, %_ZN9QtPrivate8RefCount5derefEv.exit._ZN9QtPrivate8RefCount5derefEv.exit.thread2_crit_edge.i ], [ %3, %1 ]
  %7 = getelementptr inbounds i8, ptr %6, i64 16
  %8 = getelementptr inbounds i8, ptr %6, i64 8
  %9 = load i32, ptr %8, align 8
  %10 = sext i32 %9 to i64
  %11 = getelementptr inbounds ptr, ptr %7, i64 %10
  %12 = getelementptr inbounds i8, ptr %6, i64 12
  %13 = load i32, ptr %12, align 4
  %.not5.i.i.i = icmp eq i32 %13, %9
  br i1 %.not5.i.i.i, label %_ZN5QListI29FilterNameParameterValuesPairE13node_destructEPNS1_4NodeES3_.exit.i.i, label %.lr.ph.i.preheader.i.i

.lr.ph.i.preheader.i.i:                           ; preds = %_ZN9QtPrivate8RefCount5derefEv.exit.thread2.i
  %14 = sext i32 %13 to i64
  %15 = getelementptr inbounds ptr, ptr %7, i64 %14
  br label %.lr.ph.i.i.i

.lr.ph.i.i.i:                                     ; preds = %23, %.lr.ph.i.preheader.i.i
  %.06.i.i.i = phi ptr [ %16, %23 ], [ %15, %.lr.ph.i.preheader.i.i ]
  %16 = getelementptr inbounds i8, ptr %.06.i.i.i, i64 -8
  %17 = load ptr, ptr %16, align 8
  %18 = icmp eq ptr %17, null
  br i1 %18, label %23, label %19

19:                                               ; preds = %.lr.ph.i.i.i
  %20 = load ptr, ptr %17, align 8
  %21 = getelementptr inbounds i8, ptr %20, i64 16
  %22 = load ptr, ptr %21, align 8
  tail call void %22(ptr noundef nonnull align 8 dereferenceable(40) %17) #10
  br label %23

23:                                               ; preds = %19, %.lr.ph.i.i.i
  %.not.i.i.i = icmp eq ptr %16, %11
  br i1 %.not.i.i.i, label %_ZN5QListI29FilterNameParameterValuesPairE13node_destructEPNS1_4NodeES3_.exit.i.i, label %.lr.ph.i.i.i, !llvm.loop !5

_ZN5QListI29FilterNameParameterValuesPairE13node_destructEPNS1_4NodeES3_.exit.i.i: ; preds = %23, %_ZN9QtPrivate8RefCount5derefEv.exit.thread2.i
  invoke void @_ZN9QListData7disposeEPNS_4DataE(ptr noundef %6)
          to label %_ZN5QListI29FilterNameParameterValuesPairED2Ev.exit unwind label %24

24:                                               ; preds = %_ZN5QListI29FilterNameParameterValuesPairE13node_destructEPNS1_4NodeES3_.exit.i.i
  %25 = landingpad { ptr, i32 }
          catch ptr null
  %26 = extractvalue { ptr, i32 } %25, 0
  tail call void @__clang_call_terminate(ptr %26) #11
  unreachable

_ZN5QListI29FilterNameParameterValuesPairED2Ev.exit: ; preds = %1, %_ZN9QtPrivate8RefCount5derefEv.exit.i, %_ZN5QListI29FilterNameParameterValuesPairE13node_destructEPNS1_4NodeES3_.exit.i.i
  tail call void @_ZN7QObjectD2Ev(ptr noundef nonnull align 8 dereferenceable(16) %0) #10
  ret void
}